; ModuleID = 'source-C-CXX/60/1040.cpp'
source_filename = "source-C-CXX/60/1040.cpp"
target datalayout = "e-m:e-p270:32:32-p271:32:32-p272:64:64-i64:64-f80:128-n8:16:32:64-S128"
target triple = "x86_64-pc-linux-gnu"

%"class.std::ios_base::Init" = type { i8 }
%"class.std::basic_istream" = type { i32 (...)**, i64, %"class.std::basic_ios" }
%"class.std::basic_ios" = type { %"class.std::ios_base", %"class.std::basic_ostream"*, i8, i8, %"class.std::basic_streambuf"*, %"class.std::ctype"*, %"class.std::num_put"*, %"class.std::num_get"* }
%"class.std::ios_base" = type { i32 (...)**, i64, i64, i32, i32, i32, %"struct.std::ios_base::_Callback_list"*, %"struct.std::ios_base::_Words", [8 x %"struct.std::ios_base::_Words"], i32, %"struct.std::ios_base::_Words"*, %"class.std::locale" }
%"struct.std::ios_base::_Callback_list" = type { %"struct.std::ios_base::_Callback_list"*, void (i32, %"class.std::ios_base"*, i32)*, i32, i32 }
%"struct.std::ios_base::_Words" = type { i8*, i64 }
%"class.std::locale" = type { %"class.std::locale::_Impl"* }
%"class.std::locale::_Impl" = type { i32, %"class.std::locale::facet"**, i64, %"class.std::locale::facet"**, i8** }
%"class.std::locale::facet" = type <{ i32 (...)**, i32, [4 x i8] }>
%"class.std::basic_ostream" = type { i32 (...)**, %"class.std::basic_ios" }
%"class.std::basic_streambuf" = type { i32 (...)**, i8*, i8*, i8*, i8*, i8*, i8*, %"class.std::locale" }
%"class.std::ctype" = type <{ %"class.std::locale::facet.base", [4 x i8], %struct.__locale_struct*, i8, [7 x i8], i32*, i32*, i16*, i8, [256 x i8], [256 x i8], i8, [6 x i8] }>
%"class.std::locale::facet.base" = type <{ i32 (...)**, i32 }>
%struct.__locale_struct = type { [13 x %struct.__locale_data*], i16*, i32*, i32*, [13 x i8*] }
%struct.__locale_data = type opaque
%"class.std::num_put" = type { %"class.std::locale::facet.base", [4 x i8] }
%"class.std::num_get" = type { %"class.std::locale::facet.base", [4 x i8] }

@_ZStL8__ioinit = internal global %"class.std::ios_base::Init" zeroinitializer, align 1
@__dso_handle = external hidden global i8
@_ZSt3cin = external global %"class.std::basic_istream", align 8
@_ZSt4cout = external global %"class.std::basic_ostream", align 8
@llvm.global_ctors = appending global [1 x { i32, void ()*, i8* }] [{ i32, void ()*, i8* } { i32 65535, void ()* @_GLOBAL__sub_I_1040.cpp, i8* null }]

declare void @_ZNSt8ios_base4InitC1Ev(%"class.std::ios_base::Init"* nonnull align 1 dereferenceable(1)) unnamed_addr #0

; Function Attrs: nounwind
declare void @_ZNSt8ios_base4InitD1Ev(%"class.std::ios_base::Init"* nonnull align 1 dereferenceable(1)) unnamed_addr #1

; Function Attrs: nofree nounwind
declare i32 @__cxa_atexit(void (i8*)*, i8*, i8*) local_unnamed_addr #2

; Function Attrs: mustprogress nofree nosync nounwind readnone sspstrong uwtable willreturn
define dso_local i32 @_Z3fibi(i32 %0) local_unnamed_addr #3 {
  %2 = add i32 %0, -1
  %3 = and i32 %0, 7
  %4 = icmp ult i32 %2, 7
  br i1 %4, label %21, label %5

5:                                                ; preds = %1
  %6 = and i32 %0, -8
  br label %7

7:                                                ; preds = %7, %5
  %8 = phi i32 [ 0, %5 ], [ %17, %7 ]
  %9 = phi i32 [ 1, %5 ], [ %18, %7 ]
  %10 = phi i32 [ %6, %5 ], [ %19, %7 ]
  %11 = add nsw i32 %9, %8
  %12 = add nsw i32 %11, %9
  %13 = add nsw i32 %12, %11
  %14 = add nsw i32 %13, %12
  %15 = add nsw i32 %14, %13
  %16 = add nsw i32 %15, %14
  %17 = add nsw i32 %16, %15
  %18 = add nsw i32 %17, %16
  %19 = add i32 %10, -8
  %20 = icmp eq i32 %19, 0
  br i1 %20, label %21, label %7, !llvm.loop !5

21:                                               ; preds = %7, %1
  %22 = phi i32 [ undef, %1 ], [ %17, %7 ]
  %23 = phi i32 [ 0, %1 ], [ %17, %7 ]
  %24 = phi i32 [ 1, %1 ], [ %18, %7 ]
  %25 = icmp eq i32 %3, 0
  br i1 %25, label %33, label %26

26:                                               ; preds = %21, %26
  %27 = phi i32 [ %28, %26 ], [ %23, %21 ]
  %28 = phi i32 [ %30, %26 ], [ %24, %21 ]
  %29 = phi i32 [ %31, %26 ], [ %3, %21 ]
  %30 = add nsw i32 %28, %27
  %31 = add i32 %29, -1
  %32 = icmp eq i32 %31, 0
  br i1 %32, label %33, label %26, !llvm.loop !7

33:                                               ; preds = %26, %21
  %34 = phi i32 [ %22, %21 ], [ %28, %26 ]
  ret i32 %34
}

; Function Attrs: argmemonly mustprogress nofree nosync nounwind willreturn
declare void @llvm.lifetime.start.p0i8(i64 immarg, i8* nocapture) #4

; Function Attrs: argmemonly mustprogress nofree nosync nounwind willreturn
declare void @llvm.lifetime.end.p0i8(i64 immarg, i8* nocapture) #4

; Function Attrs: mustprogress norecurse sspstrong uwtable
define dso_local i32 @main() local_unnamed_addr #5 {
  %1 = alloca i32, align 4
  %2 = alloca i32, align 4
  %3 = bitcast i32* %1 to i8*
  call void @llvm.lifetime.start.p0i8(i64 4, i8* nonnull %3) #8
  %4 = call nonnull align 8 dereferenceable(16) %"class.std::basic_istream"* @_ZNSirsERi(%"class.std::basic_istream"* nonnull align 8 dereferenceable(16) @_ZSt3cin, i32* nonnull align 4 dereferenceable(4) %1)
  %5 = bitcast i32* %2 to i8*
  %6 = load i32, i32* %1, align 4, !tbaa !9
  %7 = add nsw i32 %6, -1
  store i32 %7, i32* %1, align 4, !tbaa !9
  %8 = icmp eq i32 %6, 0
  br i1 %8, label %78, label %9

9:                                                ; preds = %0, %71
  call void @llvm.lifetime.start.p0i8(i64 4, i8* nonnull %5) #8
  %10 = call nonnull align 8 dereferenceable(16) %"class.std::basic_istream"* @_ZNSirsERi(%"class.std::basic_istream"* nonnull align 8 dereferenceable(16) @_ZSt3cin, i32* nonnull align 4 dereferenceable(4) %2)
  %11 = load i32, i32* %2, align 4, !tbaa !9
  %12 = add i32 %11, -1
  %13 = and i32 %11, 7
  %14 = icmp ult i32 %12, 7
  br i1 %14, label %31, label %15

15:                                               ; preds = %9
  %16 = and i32 %11, -8
  br label %17

17:                                               ; preds = %17, %15
  %18 = phi i32 [ 0, %15 ], [ %27, %17 ]
  %19 = phi i32 [ 1, %15 ], [ %28, %17 ]
  %20 = phi i32 [ %16, %15 ], [ %29, %17 ]
  %21 = add nsw i32 %19, %18
  %22 = add nsw i32 %21, %19
  %23 = add nsw i32 %22, %21
  %24 = add nsw i32 %23, %22
  %25 = add nsw i32 %24, %23
  %26 = add nsw i32 %25, %24
  %27 = add nsw i32 %26, %25
  %28 = add nsw i32 %27, %26
  %29 = add i32 %20, -8
  %30 = icmp eq i32 %29, 0
  br i1 %30, label %31, label %17, !llvm.loop !5

31:                                               ; preds = %17, %9
  %32 = phi i32 [ undef, %9 ], [ %27, %17 ]
  %33 = phi i32 [ 0, %9 ], [ %27, %17 ]
  %34 = phi i32 [ 1, %9 ], [ %28, %17 ]
  %35 = icmp eq i32 %13, 0
  br i1 %35, label %43, label %36

36:                                               ; preds = %31, %36
  %37 = phi i32 [ %38, %36 ], [ %33, %31 ]
  %38 = phi i32 [ %40, %36 ], [ %34, %31 ]
  %39 = phi i32 [ %41, %36 ], [ %13, %31 ]
  %40 = add nsw i32 %38, %37
  %41 = add i32 %39, -1
  %42 = icmp eq i32 %41, 0
  br i1 %42, label %43, label %36, !llvm.loop !13

43:                                               ; preds = %36, %31
  %44 = phi i32 [ %32, %31 ], [ %38, %36 ]
  %45 = call nonnull align 8 dereferenceable(8) %"class.std::basic_ostream"* @_ZNSolsEi(%"class.std::basic_ostream"* nonnull align 8 dereferenceable(8) @_ZSt4cout, i32 %44)
  %46 = bitcast %"class.std::basic_ostream"* %45 to i8**
  %47 = load i8*, i8** %46, align 8, !tbaa !14
  %48 = getelementptr i8, i8* %47, i64 -24
  %49 = bitcast i8* %48 to i64*
  %50 = load i64, i64* %49, align 8
  %51 = bitcast %"class.std::basic_ostream"* %45 to i8*
  %52 = add nsw i64 %50, 240
  %53 = getelementptr inbounds i8, i8* %51, i64 %52
  %54 = bitcast i8* %53 to %"class.std::ctype"**
  %55 = load %"class.std::ctype"*, %"class.std::ctype"** %54, align 8, !tbaa !16
  %56 = icmp eq %"class.std::ctype"* %55, null
  br i1 %56, label %57, label %58

57:                                               ; preds = %43
  call void @_ZSt16__throw_bad_castv() #9
  unreachable

58:                                               ; preds = %43
  %59 = getelementptr inbounds %"class.std::ctype", %"class.std::ctype"* %55, i64 0, i32 8
  %60 = load i8, i8* %59, align 8, !tbaa !20
  %61 = icmp eq i8 %60, 0
  br i1 %61, label %65, label %62

62:                                               ; preds = %58
  %63 = getelementptr inbounds %"class.std::ctype", %"class.std::ctype"* %55, i64 0, i32 9, i64 10
  %64 = load i8, i8* %63, align 1, !tbaa !22
  br label %71

65:                                               ; preds = %58
  call void @_ZNKSt5ctypeIcE13_M_widen_initEv(%"class.std::ctype"* nonnull align 8 dereferenceable(570) %55)
  %66 = bitcast %"class.std::ctype"* %55 to i8 (%"class.std::ctype"*, i8)***
  %67 = load i8 (%"class.std::ctype"*, i8)**, i8 (%"class.std::ctype"*, i8)*** %66, align 8, !tbaa !14
  %68 = getelementptr inbounds i8 (%"class.std::ctype"*, i8)*, i8 (%"class.std::ctype"*, i8)** %67, i64 6
  %69 = load i8 (%"class.std::ctype"*, i8)*, i8 (%"class.std::ctype"*, i8)** %68, align 8
  %70 = call signext i8 %69(%"class.std::ctype"* nonnull align 8 dereferenceable(570) %55, i8 signext 10)
  br label %71

71:                                               ; preds = %62, %65
  %72 = phi i8 [ %64, %62 ], [ %70, %65 ]
  %73 = call nonnull align 8 dereferenceable(8) %"class.std::basic_ostream"* @_ZNSo3putEc(%"class.std::basic_ostream"* nonnull align 8 dereferenceable(8) %45, i8 signext %72)
  %74 = call nonnull align 8 dereferenceable(8) %"class.std::basic_ostream"* @_ZNSo5flushEv(%"class.std::basic_ostream"* nonnull align 8 dereferenceable(8) %73)
  call void @llvm.lifetime.end.p0i8(i64 4, i8* nonnull %5) #8
  %75 = load i32, i32* %1, align 4, !tbaa !9
  %76 = add nsw i32 %75, -1
  store i32 %76, i32* %1, align 4, !tbaa !9
  %77 = icmp eq i32 %75, 0
  br i1 %77, label %78, label %9, !llvm.loop !23

78:                                               ; preds = %71, %0
  call void @llvm.lifetime.end.p0i8(i64 4, i8* nonnull %3) #8
  ret i32 0
}

declare nonnull align 8 dereferenceable(16) %"class.std::basic_istream"* @_ZNSirsERi(%"class.std::basic_istream"* nonnull align 8 dereferenceable(16), i32* nonnull align 4 dereferenceable(4)) local_unnamed_addr #0

declare nonnull align 8 dereferenceable(8) %"class.std::basic_ostream"* @_ZNSolsEi(%"class.std::basic_ostream"* nonnull align 8 dereferenceable(8), i32) local_unnamed_addr #0

declare nonnull align 8 dereferenceable(8) %"class.std::basic_ostream"* @_ZNSo3putEc(%"class.std::basic_ostream"* nonnull align 8 dereferenceable(8), i8 signext) local_unnamed_addr #0

declare nonnull align 8 dereferenceable(8) %"class.std::basic_ostream"* @_ZNSo5flushEv(%"class.std::basic_ostream"* nonnull align 8 dereferenceable(8)) local_unnamed_addr #0

; Function Attrs: noreturn
declare void @_ZSt16__throw_bad_castv() local_unnamed_addr #6

declare void @_ZNKSt5ctypeIcE13_M_widen_initEv(%"class.std::ctype"* nonnull align 8 dereferenceable(570)) local_unnamed_addr #0

; Function Attrs: sspstrong uwtable
define internal void @_GLOBAL__sub_I_1040.cpp() #7 section ".text.startup" {
  tail call void @_ZNSt8ios_base4InitC1Ev(%"class.std::ios_base::Init"* nonnull align 1 dereferenceable(1) @_ZStL8__ioinit)
  %1 = tail call i32 @__cxa_atexit(void (i8*)* bitcast (void (%"class.std::ios_base::Init"*)* @_ZNSt8ios_base4InitD1Ev to void (i8*)*), i8* getelementptr inbounds (%"class.std::ios_base::Init", %"class.std::ios_base::Init"* @_ZStL8__ioinit, i64 0, i32 0), i8* nonnull @__dso_handle) #8
  ret void
}


!llvm.module.flags = !{!0, !1, !2, !3}
!llvm.ident = !{!4}

!0 = !{i32 1, !"wchar_size", i32 4}
!1 = !{i32 7, !"PIC Level", i32 2}
!2 = !{i32 7, !"PIE Level", i32 2}
!3 = !{i32 7, !"uwtable", i32 1}
!4 = !{!"clang version 13.0.0"}
!5 = distinct !{!5, !6}
!6 = !{!"llvm.loop.mustprogress"}
!7 = distinct !{!7, !8}
!8 = !{!"llvm.loop.unroll.disable"}
!9 = !{!10, !10, i64 0}
!10 = !{!"int", !11, i64 0}
!11 = !{!"omnipotent char", !12, i64 0}
!12 = !{!"Simple C++ TBAA"}
!13 = distinct !{!13, !8}
!14 = !{!15, !15, i64 0}
!15 = !{!"vtable pointer", !12, i64 0}
!16 = !{!17, !18, i64 240}
!17 = !{!"_ZTSSt9basic_iosIcSt11char_traitsIcEE", !18, i64 216, !11, i64 224, !19, i64 225, !18, i64 232, !18, i64 240, !18, i64 248, !18, i64 256}
!18 = !{!"any pointer", !11, i64 0}
!19 = !{!"bool", !11, i64 0}
!20 = !{!21, !11, i64 56}
!21 = !{!"_ZTSSt5ctypeIcE", !18, i64 16, !19, i64 24, !18, i64 32, !18, i64 40, !18, i64 48, !11, i64 56, !11, i64 57, !11, i64 313, !11, i64 569}
!22 = !{!11, !11, i64 0}
!23 = distinct !{!23, !6}
